; Function Attrs: mustprogress uwtable
define hidden void @_ZN19OpenColorIO_v2_5dev11ACES_OUTPUT30Generate_nit_normalization_opsERNS_10OpRcPtrVecEd(ptr noundef nonnull align 8 dereferenceable(144) %0, double noundef %1) local_unnamed_addr #3 {
  %3 = alloca [4 x double], align 16
  %4 = fmul double %1, 1.000000e-02
  call void @llvm.lifetime.start.p0(i64 32, ptr nonnull %3) #23
  store double %4, ptr %3, align 16, !tbaa !65
  %5 = getelementptr inbounds nuw i8, ptr %3, i64 8
  store double %4, ptr %5, align 8, !tbaa !65
  %6 = getelementptr inbounds nuw i8, ptr %3, i64 16
  store double %4, ptr %6, align 16, !tbaa !65
  %7 = getelementptr inbounds nuw i8, ptr %3, i64 24
  store double 1.000000e+00, ptr %7, align 8, !tbaa !65
  call void @_ZN19OpenColorIO_v2_5dev13CreateScaleOpERNS_10OpRcPtrVecEPKdNS_18TransformDirectionE(ptr noundef nonnull align 8 dereferenceable(144) %0, ptr noundef nonnull %3, i32 noundef 0)
  call void @llvm.lifetime.end.p0(i64 32, ptr nonnull %3) #23
  ret void
}